target datalayout = "e-m:e-p270:32:32-p271:32:32-p272:64:64-i64:64-i128:128-f80:128-n8:16:32:64-S128"
target triple = "x86_64-pc-linux-gnu"

%struct.ScanEnv = type { i32, i32, ptr, ptr, i32, i32, i32, i32, ptr, ptr, ptr, ptr, ptr, ptr, i32, i32, i32, i32, [8 x ptr], ptr, i32, i32, ptr, i32 }

; Function Attrs: alwaysinline nounwind
define internal ptr @memcpy.inline(ptr noalias nonnull %0, ptr noalias nonnull %1, i64 %2) #2 {
  %4 = alloca ptr, align 8
  %5 = alloca ptr, align 8
  %6 = alloca i64, align 8
  store ptr %0, ptr %4, align 8, !tbaa !12
  store ptr %1, ptr %5, align 8, !tbaa !12
  store i64 %2, ptr %6, align 8, !tbaa !15
  %7 = load ptr, ptr %4, align 8, !tbaa !12
  %8 = load ptr, ptr %5, align 8, !tbaa !12
  %9 = load i64, ptr %6, align 8, !tbaa !15
  %10 = load ptr, ptr %4, align 8, !tbaa !12
  %11 = call i64 @llvm.objectsize.i64.p0(ptr %10, i1 false, i1 true, i1 false)
  %12 = call ptr @__memcpy_chk(ptr noundef %7, ptr noundef %8, i64 noundef %9, i64 noundef %11) #13
  ret ptr %12
}

; Function Attrs: nounwind sspstrong uwtable
define internal i32 @scan_env_add_mem_entry(ptr noundef %0) #0 {
  %2 = alloca i32, align 4
  %3 = alloca ptr, align 8
  %4 = alloca i32, align 4
  %5 = alloca i32, align 4
  %6 = alloca i32, align 4
  %7 = alloca ptr, align 8
  %8 = alloca i32, align 4
  store ptr %0, ptr %3, align 8, !tbaa !12
  call void @llvm.lifetime.start.p0(i64 4, ptr %4) #13
  call void @llvm.lifetime.start.p0(i64 4, ptr %5) #13
  call void @llvm.lifetime.start.p0(i64 4, ptr %6) #13
  call void @llvm.lifetime.start.p0(i64 8, ptr %7) #13
  %9 = load ptr, ptr %3, align 8, !tbaa !12
  %10 = getelementptr inbounds nuw %struct.ScanEnv, ptr %9, i32 0, i32 15
  %11 = load i32, ptr %10, align 4, !tbaa !103
  %12 = add i32 %11, 1
  store i32 %12, ptr %5, align 4, !tbaa !13
  %13 = load i32, ptr %5, align 4, !tbaa !13
  %14 = icmp sgt i32 %13, 32767
  br i1 %14, label %15, label %16

15:                                               ; preds = %1
  store i32 -210, ptr %2, align 4
  store i32 1, ptr %8, align 4
  br label %93

16:                                               ; preds = %1
  %17 = load i32, ptr %5, align 4, !tbaa !13
  %18 = icmp sge i32 %17, 8
  br i1 %18, label %19, label %85

19:                                               ; preds = %16
  %20 = load ptr, ptr %3, align 8, !tbaa !12
  %21 = getelementptr inbounds nuw %struct.ScanEnv, ptr %20, i32 0, i32 17
  %22 = load i32, ptr %21, align 4, !tbaa !113
  %23 = load i32, ptr %5, align 4, !tbaa !13
  %24 = icmp sle i32 %22, %23
  br i1 %24, label %25, label %84

25:                                               ; preds = %19
  %26 = load ptr, ptr %3, align 8, !tbaa !12
  %27 = getelementptr inbounds nuw %struct.ScanEnv, ptr %26, i32 0, i32 19
  %28 = load ptr, ptr %27, align 8, !tbaa !114
  %29 = icmp eq ptr %28, null
  br i1 %29, label %30, label %44

30:                                               ; preds = %25
  store i32 16, ptr %6, align 4, !tbaa !13
  %31 = load i32, ptr %6, align 4, !tbaa !13
  %32 = sext i32 %31 to i64
  %33 = mul i64 8, %32
  %34 = call noalias ptr @malloc(i64 noundef %33) #14
  store ptr %34, ptr %7, align 8, !tbaa !92
  %35 = load ptr, ptr %7, align 8, !tbaa !92
  %36 = icmp eq ptr %35, null
  br i1 %36, label %37, label %38

37:                                               ; preds = %30
  store i32 -5, ptr %2, align 4
  store i32 1, ptr %8, align 4
  br label %93

38:                                               ; preds = %30
  %39 = load ptr, ptr %7, align 8, !tbaa !92
  %40 = load ptr, ptr %3, align 8, !tbaa !12
  %41 = getelementptr inbounds nuw %struct.ScanEnv, ptr %40, i32 0, i32 18
  %42 = getelementptr inbounds [8 x ptr], ptr %41, i64 0, i64 0
  %43 = call ptr @memcpy.inline(ptr noundef %39, ptr noundef %42, i64 noundef 64) #13
  br label %60

44:                                               ; preds = %25
  %45 = load ptr, ptr %3, align 8, !tbaa !12
  %46 = getelementptr inbounds nuw %struct.ScanEnv, ptr %45, i32 0, i32 17
  %47 = load i32, ptr %46, align 4, !tbaa !113
  %48 = mul i32 %47, 2
  store i32 %48, ptr %6, align 4, !tbaa !13
  %49 = load ptr, ptr %3, align 8, !tbaa !12
  %50 = getelementptr inbounds nuw %struct.ScanEnv, ptr %49, i32 0, i32 19
  %51 = load ptr, ptr %50, align 8, !tbaa !114
  %52 = load i32, ptr %6, align 4, !tbaa !13
  %53 = sext i32 %52 to i64
  %54 = mul i64 8, %53
  %55 = call ptr @realloc(ptr noundef %51, i64 noundef %54) #15
  store ptr %55, ptr %7, align 8, !tbaa !92
  %56 = load ptr, ptr %7, align 8, !tbaa !92
  %57 = icmp eq ptr %56, null
  br i1 %57, label %58, label %59

58:                                               ; preds = %44
  store i32 -5, ptr %2, align 4
  store i32 1, ptr %8, align 4
  br label %93

59:                                               ; preds = %44
  br label %60

60:                                               ; preds = %59, %38
  %61 = load ptr, ptr %3, align 8, !tbaa !12
  %62 = getelementptr inbounds nuw %struct.ScanEnv, ptr %61, i32 0, i32 15
  %63 = load i32, ptr %62, align 4, !tbaa !103
  %64 = add i32 %63, 1
  store i32 %64, ptr %4, align 4, !tbaa !13
  br label %65

65:                                               ; preds = %74, %60
  %66 = load i32, ptr %4, align 4, !tbaa !13
  %67 = load i32, ptr %6, align 4, !tbaa !13
  %68 = icmp slt i32 %66, %67
  br i1 %68, label %69, label %77

69:                                               ; preds = %65
  %70 = load ptr, ptr %7, align 8, !tbaa !92
  %71 = load i32, ptr %4, align 4, !tbaa !13
  %72 = sext i32 %71 to i64
  %73 = getelementptr ptr, ptr %70, i64 %72
  store ptr null, ptr %73, align 8, !tbaa !68
  br label %74

74:                                               ; preds = %69
  %75 = load i32, ptr %4, align 4, !tbaa !13
  %76 = add i32 %75, 1
  store i32 %76, ptr %4, align 4, !tbaa !13
  br label %65, !llvm.loop !174

77:                                               ; preds = %65
  %78 = load ptr, ptr %7, align 8, !tbaa !92
  %79 = load ptr, ptr %3, align 8, !tbaa !12
  %80 = getelementptr inbounds nuw %struct.ScanEnv, ptr %79, i32 0, i32 19
  store ptr %78, ptr %80, align 8, !tbaa !114
  %81 = load i32, ptr %6, align 4, !tbaa !13
  %82 = load ptr, ptr %3, align 8, !tbaa !12
  %83 = getelementptr inbounds nuw %struct.ScanEnv, ptr %82, i32 0, i32 17
  store i32 %81, ptr %83, align 4, !tbaa !113
  br label %84

84:                                               ; preds = %77, %19
  br label %85

85:                                               ; preds = %84, %16
  %86 = load ptr, ptr %3, align 8, !tbaa !12
  %87 = getelementptr inbounds nuw %struct.ScanEnv, ptr %86, i32 0, i32 15
  %88 = load i32, ptr %87, align 4, !tbaa !103
  %89 = add i32 %88, 1
  store i32 %89, ptr %87, align 4, !tbaa !103
  %90 = load ptr, ptr %3, align 8, !tbaa !12
  %91 = getelementptr inbounds nuw %struct.ScanEnv, ptr %90, i32 0, i32 15
  %92 = load i32, ptr %91, align 4, !tbaa !103
  store i32 %92, ptr %2, align 4
  store i32 1, ptr %8, align 4
  br label %93

93:                                               ; preds = %85, %58, %37, %15
  call void @llvm.lifetime.end.p0(i64 8, ptr %7) #13
  call void @llvm.lifetime.end.p0(i64 4, ptr %6) #13
  call void @llvm.lifetime.end.p0(i64 4, ptr %5) #13
  call void @llvm.lifetime.end.p0(i64 4, ptr %4) #13
  %94 = load i32, ptr %2, align 4
  ret i32 %94
}