; Function Attrs: mustprogress nounwind sspstrong willreturn uwtable
define internal fastcc i32 @scan_env_add_mem_entry(ptr noundef captures(none) %0) unnamed_addr #12 {
  %2 = getelementptr inbounds nuw i8, ptr %0, i64 92
  %3 = load i32, ptr %2, align 4, !tbaa !91
  %4 = add i32 %3, 1
  %5 = icmp sgt i32 %4, 32767
  br i1 %5, label %37, label %6

6:                                                ; preds = %1
  %7 = icmp sgt i32 %4, 7
  br i1 %7, label %8, label %36

8:                                                ; preds = %6
  %9 = getelementptr inbounds nuw i8, ptr %0, i64 100
  %10 = load i32, ptr %9, align 4, !tbaa !167
  %.not = icmp sgt i32 %10, %4
  br i1 %.not, label %36, label %11

11:                                               ; preds = %8
  %12 = getelementptr inbounds nuw i8, ptr %0, i64 168
  %13 = load ptr, ptr %12, align 8, !tbaa !92
  %14 = icmp eq ptr %13, null
  br i1 %14, label %15, label %20

15:                                               ; preds = %11
  %16 = tail call noalias dereferenceable_or_null(128) ptr @malloc(i64 noundef 128) #26
  %17 = icmp eq ptr %16, null
  br i1 %17, label %37, label %18

18:                                               ; preds = %15
  %19 = getelementptr inbounds nuw i8, ptr %0, i64 104
  tail call void @llvm.memcpy.p0.p0.i64(ptr noundef nonnull align 1 dereferenceable(64) %16, ptr noundef nonnull align 1 dereferenceable(64) %19, i64 noundef 64, i1 noundef false) #25
  br label %26

20:                                               ; preds = %11
  %21 = shl i32 %10, 1
  %22 = sext i32 %21 to i64
  %23 = shl nsw i64 %22, 3
  %24 = tail call ptr @realloc(ptr noundef nonnull %13, i64 noundef %23) #27
  %25 = icmp eq ptr %24, null
  br i1 %25, label %37, label %._crit_edge37

._crit_edge37:                                    ; preds = %20
  %.pre = load i32, ptr %2, align 4, !tbaa !91
  %.pre38 = add i32 %.pre, 1
  br label %26

26:                                               ; preds = %._crit_edge37, %18
  %.02834.pre-phi = phi i32 [ %.pre38, %._crit_edge37 ], [ %4, %18 ]
  %27 = phi i32 [ %.pre, %._crit_edge37 ], [ %3, %18 ]
  %.026 = phi i32 [ %21, %._crit_edge37 ], [ 16, %18 ]
  %.0 = phi ptr [ %24, %._crit_edge37 ], [ %16, %18 ]
  %28 = icmp slt i32 %.02834.pre-phi, %.026
  br i1 %28, label %.lr.ph.preheader, label %._crit_edge

.lr.ph.preheader:                                 ; preds = %26
  %29 = sext i32 %.02834.pre-phi to i64
  %30 = shl nsw i64 %29, 3
  %scevgep = getelementptr i8, ptr %.0, i64 %30
  %31 = add i32 %.026, -2
  %32 = sub i32 %31, %27
  %33 = zext i32 %32 to i64
  %34 = shl nuw nsw i64 %33, 3
  %35 = add nuw nsw i64 %34, 8
  tail call void @llvm.memset.p0.i64(ptr noundef nonnull align 8 dereferenceable(1) %scevgep, i8 0, i64 %35, i1 false), !tbaa !89
  br label %._crit_edge

._crit_edge:                                      ; preds = %.lr.ph.preheader, %26
  store ptr %.0, ptr %12, align 8, !tbaa !92
  store i32 %.026, ptr %9, align 4, !tbaa !167
  br label %36

36:                                               ; preds = %8, %._crit_edge, %6
  %.pre-phi = phi i32 [ %4, %8 ], [ %.02834.pre-phi, %._crit_edge ], [ %4, %6 ]
  store i32 %.pre-phi, ptr %2, align 4, !tbaa !91
  br label %37

37:                                               ; preds = %20, %15, %1, %36
  %.027 = phi i32 [ %.pre-phi, %36 ], [ -210, %1 ], [ -5, %15 ], [ -5, %20 ]
  ret i32 %.027
}